target datalayout = "e-m:e-p270:32:32-p271:32:32-p272:64:64-i64:64-i128:128-f80:128-n8:16:32:64-S128"
target triple = "x86_64-pc-linux-gnu"

%union.pthread_mutex_t = type { %struct.__pthread_mutex_s }
%struct.__pthread_mutex_s = type { i32, i32, i32, i32, i32, i16, i16, %struct.__pthread_internal_list }
%struct.__pthread_internal_list = type { ptr, ptr }
%struct.mime_map = type { ptr, i32 }
%struct.message = type { ptr, i32, i32, ptr, ptr, ptr, ptr, ptr, ptr, i64, i32, ptr, ptr, ptr, ptr, ptr, i8, i8, i8, i8, ptr }

@messageSetMimeType.mime_mutex = internal global %union.pthread_mutex_t zeroinitializer, align 8
@messageSetMimeType.mime_table = internal global ptr null, align 8
@.str.2 = private unnamed_addr constant [42 x i8] c"messageSetMimeType: NULL message pointer\0A\00", align 1
@.str.3 = private unnamed_addr constant [46 x i8] c"messageSetMimeType: Empty content-type field\0A\00", align 1
@.str.4 = private unnamed_addr constant [26 x i8] c"messageSetMimeType: '%s'\0A\00", align 1
@.str.5 = private unnamed_addr constant [3 x i8] c"x-\00", align 1
@.str.6 = private unnamed_addr constant [6 x i8] c"plain\00", align 1
@.str.7 = private unnamed_addr constant [43 x i8] c"Incorrect MIME type: `plain', set to Text\0A\00", align 1
@.str.8 = private unnamed_addr constant [58 x i8] c"Unknown MIME type \22%s\22 - guessing as %s (%d%% certainty)\0A\00", align 1
@.str.9 = private unnamed_addr constant [118 x i8] c"Unknown MIME type: `%s', set to Application - if you believe this file contains a virus, submit it to www.clamav.net\0A\00", align 1

; Function Attrs: nounwind uwtable
define i32 @messageSetMimeType(ptr noundef %0, ptr noundef %1) #0 {
  %3 = alloca i32, align 4
  %4 = alloca ptr, align 8
  %5 = alloca ptr, align 8
  %6 = alloca ptr, align 8
  %7 = alloca i32, align 4
  %8 = alloca i32, align 4
  %9 = alloca i32, align 4
  %10 = alloca ptr, align 8
  %11 = alloca i32, align 4
  store ptr %0, ptr %4, align 8
  store ptr %1, ptr %5, align 8
  %12 = load ptr, ptr %4, align 8
  %13 = icmp eq ptr %12, null
  br i1 %13, label %14, label %15

14:                                               ; preds = %2
  call void (ptr, ...) @cli_dbgmsg(ptr noundef @.str.2)
  store i32 0, ptr %3, align 4
  br label %151

15:                                               ; preds = %2
  %16 = load ptr, ptr %5, align 8
  %17 = icmp eq ptr %16, null
  br i1 %17, label %18, label %19

18:                                               ; preds = %15
  call void (ptr, ...) @cli_dbgmsg(ptr noundef @.str.3)
  store i32 0, ptr %3, align 4
  br label %151

19:                                               ; preds = %15
  %20 = load ptr, ptr %5, align 8
  call void (ptr, ...) @cli_dbgmsg(ptr noundef @.str.4, ptr noundef %20)
  br label %21

21:                                               ; preds = %41, %19
  %22 = call ptr @__ctype_b_loc() #12
  %23 = load ptr, ptr %22, align 8
  %24 = load ptr, ptr %5, align 8
  %25 = load i8, ptr %24, align 1
  %26 = sext i8 %25 to i32
  %27 = sext i32 %26 to i64
  %28 = getelementptr inbounds i16, ptr %23, i64 %27
  %29 = load i16, ptr %28, align 2
  %30 = zext i16 %29 to i32
  %31 = and i32 %30, 1024
  %32 = icmp ne i32 %31, 0
  %33 = xor i1 %32, true
  br i1 %33, label %34, label %42

34:                                               ; preds = %21
  %35 = load ptr, ptr %5, align 8
  %36 = getelementptr inbounds i8, ptr %35, i32 1
  store ptr %36, ptr %5, align 8
  %37 = load i8, ptr %35, align 1
  %38 = sext i8 %37 to i32
  %39 = icmp eq i32 %38, 0
  br i1 %39, label %40, label %41

40:                                               ; preds = %34
  store i32 0, ptr %3, align 4
  br label %151

41:                                               ; preds = %34
  br label %21

42:                                               ; preds = %21
  %43 = call i32 @pthread_mutex_lock(ptr noundef @messageSetMimeType.mime_mutex) #11
  %44 = load ptr, ptr @messageSetMimeType.mime_table, align 8
  %45 = icmp eq ptr %44, null
  br i1 %45, label %46, label %76

46:                                               ; preds = %42
  %47 = call ptr @tableCreate()
  store ptr %47, ptr @messageSetMimeType.mime_table, align 8
  %48 = load ptr, ptr @messageSetMimeType.mime_table, align 8
  %49 = icmp eq ptr %48, null
  br i1 %49, label %50, label %52

50:                                               ; preds = %46
  %51 = call i32 @pthread_mutex_unlock(ptr noundef @messageSetMimeType.mime_mutex) #11
  store i32 0, ptr %3, align 4
  br label %151

52:                                               ; preds = %46
  store ptr @mime_map, ptr %6, align 8
  br label %53

53:                                               ; preds = %72, %52
  %54 = load ptr, ptr %6, align 8
  %55 = getelementptr inbounds %struct.mime_map, ptr %54, i32 0, i32 0
  %56 = load ptr, ptr %55, align 8
  %57 = icmp ne ptr %56, null
  br i1 %57, label %58, label %75

58:                                               ; preds = %53
  %59 = load ptr, ptr @messageSetMimeType.mime_table, align 8
  %60 = load ptr, ptr %6, align 8
  %61 = getelementptr inbounds %struct.mime_map, ptr %60, i32 0, i32 0
  %62 = load ptr, ptr %61, align 8
  %63 = load ptr, ptr %6, align 8
  %64 = getelementptr inbounds %struct.mime_map, ptr %63, i32 0, i32 1
  %65 = load i32, ptr %64, align 8
  %66 = call i32 @tableInsert(ptr noundef %59, ptr noundef %62, i32 noundef %65)
  %67 = icmp ne i32 %66, 0
  br i1 %67, label %71, label %68

68:                                               ; preds = %58
  %69 = load ptr, ptr @messageSetMimeType.mime_table, align 8
  call void @tableDestroy(ptr noundef %69)
  store ptr null, ptr @messageSetMimeType.mime_table, align 8
  %70 = call i32 @pthread_mutex_unlock(ptr noundef @messageSetMimeType.mime_mutex) #11
  store i32 0, ptr %3, align 4
  br label %151

71:                                               ; preds = %58
  br label %72

72:                                               ; preds = %71
  %73 = load ptr, ptr %6, align 8
  %74 = getelementptr inbounds %struct.mime_map, ptr %73, i32 1
  store ptr %74, ptr %6, align 8
  br label %53

75:                                               ; preds = %53
  br label %76

76:                                               ; preds = %75, %42
  %77 = call i32 @pthread_mutex_unlock(ptr noundef @messageSetMimeType.mime_mutex) #11
  %78 = load ptr, ptr @messageSetMimeType.mime_table, align 8
  %79 = load ptr, ptr %5, align 8
  %80 = call i32 @tableFind(ptr noundef %78, ptr noundef %79)
  store i32 %80, ptr %7, align 4
  %81 = load i32, ptr %7, align 4
  %82 = icmp ne i32 %81, -1
  br i1 %82, label %83, label %87

83:                                               ; preds = %76
  %84 = load i32, ptr %7, align 4
  %85 = load ptr, ptr %4, align 8
  %86 = getelementptr inbounds %struct.message, ptr %85, i32 0, i32 1
  store i32 %84, ptr %86, align 8
  store i32 1, ptr %3, align 4
  br label %151

87:                                               ; preds = %76
  %88 = load ptr, ptr %4, align 8
  %89 = getelementptr inbounds %struct.message, ptr %88, i32 0, i32 1
  %90 = load i32, ptr %89, align 8
  %91 = icmp eq i32 %90, 0
  br i1 %91, label %92, label %150

92:                                               ; preds = %87
  %93 = load ptr, ptr %5, align 8
  %94 = call i32 @strncasecmp(ptr noundef %93, ptr noundef @.str.5, i64 noundef 2) #13
  %95 = icmp eq i32 %94, 0
  br i1 %95, label %96, label %99

96:                                               ; preds = %92
  %97 = load ptr, ptr %4, align 8
  %98 = getelementptr inbounds %struct.message, ptr %97, i32 0, i32 1
  store i32 8, ptr %98, align 8
  br label %149

99:                                               ; preds = %92
  %100 = load ptr, ptr %5, align 8
  %101 = call i32 @strcasecmp(ptr noundef %100, ptr noundef @.str.6) #13
  %102 = icmp eq i32 %101, 0
  br i1 %102, label %103, label %106

103:                                              ; preds = %99
  call void (ptr, ...) @cli_dbgmsg(ptr noundef @.str.7)
  %104 = load ptr, ptr %4, align 8
  %105 = getelementptr inbounds %struct.message, ptr %104, i32 0, i32 1
  store i32 6, ptr %105, align 8
  br label %148

106:                                              ; preds = %99
  store i32 0, ptr %8, align 4
  store i32 -1, ptr %9, align 4
  store ptr null, ptr %10, align 8
  store ptr @mime_map, ptr %6, align 8
  br label %107

107:                                              ; preds = %130, %106
  %108 = load ptr, ptr %6, align 8
  %109 = getelementptr inbounds %struct.mime_map, ptr %108, i32 0, i32 0
  %110 = load ptr, ptr %109, align 8
  %111 = icmp ne ptr %110, null
  br i1 %111, label %112, label %133

112:                                              ; preds = %107
  %113 = load ptr, ptr %6, align 8
  %114 = getelementptr inbounds %struct.mime_map, ptr %113, i32 0, i32 0
  %115 = load ptr, ptr %114, align 8
  %116 = load ptr, ptr %5, align 8
  %117 = call i32 @simil(ptr noundef %115, ptr noundef %116)
  store i32 %117, ptr %11, align 4
  %118 = load i32, ptr %11, align 4
  %119 = load i32, ptr %8, align 4
  %120 = icmp sgt i32 %118, %119
  br i1 %120, label %121, label %129

121:                                              ; preds = %112
  %122 = load i32, ptr %11, align 4
  store i32 %122, ptr %8, align 4
  %123 = load ptr, ptr %6, align 8
  %124 = getelementptr inbounds %struct.mime_map, ptr %123, i32 0, i32 0
  %125 = load ptr, ptr %124, align 8
  store ptr %125, ptr %10, align 8
  %126 = load ptr, ptr %6, align 8
  %127 = getelementptr inbounds %struct.mime_map, ptr %126, i32 0, i32 1
  %128 = load i32, ptr %127, align 8
  store i32 %128, ptr %9, align 4
  br label %129

129:                                              ; preds = %121, %112
  br label %130

130:                                              ; preds = %129
  %131 = load ptr, ptr %6, align 8
  %132 = getelementptr inbounds %struct.mime_map, ptr %131, i32 1
  store ptr %132, ptr %6, align 8
  br label %107

133:                                              ; preds = %107
  %134 = load i32, ptr %8, align 4
  %135 = icmp sge i32 %134, 50
  br i1 %135, label %136, label %143

136:                                              ; preds = %133
  %137 = load ptr, ptr %5, align 8
  %138 = load ptr, ptr %10, align 8
  %139 = load i32, ptr %8, align 4
  call void (ptr, ...) @cli_dbgmsg(ptr noundef @.str.8, ptr noundef %137, ptr noundef %138, i32 noundef %139)
  %140 = load i32, ptr %9, align 4
  %141 = load ptr, ptr %4, align 8
  %142 = getelementptr inbounds %struct.message, ptr %141, i32 0, i32 1
  store i32 %140, ptr %142, align 8
  br label %147

143:                                              ; preds = %133
  %144 = load ptr, ptr %5, align 8
  call void (ptr, ...) @cli_dbgmsg(ptr noundef @.str.9, ptr noundef %144)
  %145 = load ptr, ptr %4, align 8
  %146 = getelementptr inbounds %struct.message, ptr %145, i32 0, i32 1
  store i32 1, ptr %146, align 8
  br label %147

147:                                              ; preds = %143, %136
  br label %148

148:                                              ; preds = %147, %103
  br label %149

149:                                              ; preds = %148, %96
  store i32 1, ptr %3, align 4
  br label %151

150:                                              ; preds = %87
  store i32 0, ptr %3, align 4
  br label %151

151:                                              ; preds = %150, %149, %83, %68, %50, %40, %18, %14
  %152 = load i32, ptr %3, align 4
  ret i32 %152
}