; Function Attrs: nounwind uwtable
define noundef i32 @messageSetMimeType(ptr noundef %0, ptr noundef %1) local_unnamed_addr #2 {
  %3 = icmp eq ptr %0, null
  br i1 %3, label %4, label %5

4:                                                ; preds = %2
  tail call void (ptr, ...) @cli_dbgmsg(ptr noundef nonnull @.str.2) #21
  br label %.loopexit54

5:                                                ; preds = %2
  %6 = icmp eq ptr %1, null
  br i1 %6, label %7, label %8

7:                                                ; preds = %5
  tail call void (ptr, ...) @cli_dbgmsg(ptr noundef nonnull @.str.3) #21
  br label %.loopexit54

8:                                                ; preds = %5
  tail call void (ptr, ...) @cli_dbgmsg(ptr noundef nonnull @.str.4, ptr noundef nonnull %1) #21
  %9 = tail call ptr @__ctype_b_loc() #22
  %10 = load ptr, ptr %9, align 8
  br label %11

11:                                               ; preds = %17, %8
  %.040 = phi ptr [ %1, %8 ], [ %18, %17 ]
  %12 = load i8, ptr %.040, align 1
  %13 = sext i8 %12 to i64
  %14 = getelementptr inbounds i16, ptr %10, i64 %13
  %15 = load i16, ptr %14, align 2
  %16 = and i16 %15, 1024
  %.not = icmp eq i16 %16, 0
  br i1 %.not, label %17, label %20

17:                                               ; preds = %11
  %18 = getelementptr inbounds i8, ptr %.040, i64 1
  %19 = icmp eq i8 %12, 0
  br i1 %19, label %.loopexit54, label %11

20:                                               ; preds = %11
  %21 = tail call i32 @pthread_mutex_lock(ptr noundef nonnull @messageSetMimeType.mime_mutex) #21
  %22 = load ptr, ptr @messageSetMimeType.mime_table, align 8
  %23 = icmp eq ptr %22, null
  br i1 %23, label %24, label %.loopexit

24:                                               ; preds = %20
  %25 = tail call ptr @tableCreate() #21
  store ptr %25, ptr @messageSetMimeType.mime_table, align 8
  %26 = icmp eq ptr %25, null
  br i1 %26, label %27, label %.preheader53

27:                                               ; preds = %24
  %28 = tail call i32 @pthread_mutex_unlock(ptr noundef nonnull @messageSetMimeType.mime_mutex) #21
  br label %.loopexit54

29:                                               ; preds = %.preheader53
  %30 = getelementptr inbounds i8, ptr %.04156, i64 16
  %31 = load ptr, ptr %30, align 8
  %.not49 = icmp eq ptr %31, null
  br i1 %.not49, label %.loopexit, label %.preheader53

.preheader53:                                     ; preds = %24, %29
  %32 = phi ptr [ %31, %29 ], [ @.str.74, %24 ]
  %.04156 = phi ptr [ %30, %29 ], [ @mime_map, %24 ]
  %33 = load ptr, ptr @messageSetMimeType.mime_table, align 8
  %34 = getelementptr inbounds i8, ptr %.04156, i64 8
  %35 = load i32, ptr %34, align 8
  %36 = tail call i32 @tableInsert(ptr noundef %33, ptr noundef nonnull %32, i32 noundef %35) #21
  %.not52 = icmp eq i32 %36, 0
  br i1 %.not52, label %37, label %29

37:                                               ; preds = %.preheader53
  %38 = load ptr, ptr @messageSetMimeType.mime_table, align 8
  tail call void @tableDestroy(ptr noundef %38) #21
  store ptr null, ptr @messageSetMimeType.mime_table, align 8
  %39 = tail call i32 @pthread_mutex_unlock(ptr noundef nonnull @messageSetMimeType.mime_mutex) #21
  br label %.loopexit54

.loopexit:                                        ; preds = %29, %20
  %40 = tail call i32 @pthread_mutex_unlock(ptr noundef nonnull @messageSetMimeType.mime_mutex) #21
  %41 = load ptr, ptr @messageSetMimeType.mime_table, align 8
  %42 = tail call i32 @tableFind(ptr noundef %41, ptr noundef nonnull %.040) #21
  %.not50 = icmp eq i32 %42, -1
  %43 = getelementptr inbounds i8, ptr %0, i64 8
  br i1 %.not50, label %45, label %44

44:                                               ; preds = %.loopexit
  store i32 %42, ptr %43, align 8
  br label %.loopexit54

45:                                               ; preds = %.loopexit
  %46 = load i32, ptr %43, align 8
  %47 = icmp eq i32 %46, 0
  br i1 %47, label %48, label %.loopexit54

48:                                               ; preds = %45
  %49 = tail call i32 @strncasecmp(ptr noundef nonnull %.040, ptr noundef nonnull @.str.5, i64 noundef 2) #23
  %50 = icmp eq i32 %49, 0
  br i1 %50, label %51, label %52

51:                                               ; preds = %48
  store i32 8, ptr %43, align 8
  br label %.loopexit54

52:                                               ; preds = %48
  %53 = tail call i32 @strcasecmp(ptr noundef nonnull %.040, ptr noundef nonnull @.str.6) #23
  %54 = icmp eq i32 %53, 0
  br i1 %54, label %55, label %.preheader

55:                                               ; preds = %52
  tail call void (ptr, ...) @cli_dbgmsg(ptr noundef nonnull @.str.7) #21
  store i32 6, ptr %43, align 8
  br label %.loopexit54

.preheader:                                       ; preds = %52, %62
  %56 = phi ptr [ %64, %62 ], [ @.str.74, %52 ]
  %.03560 = phi ptr [ %.1, %62 ], [ null, %52 ]
  %.03659 = phi i32 [ %.137, %62 ], [ -1, %52 ]
  %.03858 = phi i32 [ %.139, %62 ], [ 0, %52 ]
  %.14257 = phi ptr [ %63, %62 ], [ @mime_map, %52 ]
  %57 = tail call fastcc i32 @simil(ptr noundef nonnull %56, ptr noundef nonnull %.040)
  %58 = icmp sgt i32 %57, %.03858
  br i1 %58, label %59, label %62

59:                                               ; preds = %.preheader
  %60 = getelementptr inbounds i8, ptr %.14257, i64 8
  %61 = load i32, ptr %60, align 8
  br label %62

62:                                               ; preds = %.preheader, %59
  %.139 = phi i32 [ %57, %59 ], [ %.03858, %.preheader ]
  %.137 = phi i32 [ %61, %59 ], [ %.03659, %.preheader ]
  %.1 = phi ptr [ %56, %59 ], [ %.03560, %.preheader ]
  %63 = getelementptr inbounds i8, ptr %.14257, i64 16
  %64 = load ptr, ptr %63, align 8
  %.not51 = icmp eq ptr %64, null
  br i1 %.not51, label %65, label %.preheader

65:                                               ; preds = %62
  %66 = icmp sgt i32 %.139, 49
  br i1 %66, label %67, label %68

67:                                               ; preds = %65
  tail call void (ptr, ...) @cli_dbgmsg(ptr noundef nonnull @.str.8, ptr noundef nonnull %.040, ptr noundef %.1, i32 noundef %.139) #21
  store i32 %.137, ptr %43, align 8
  br label %.loopexit54

68:                                               ; preds = %65
  tail call void (ptr, ...) @cli_dbgmsg(ptr noundef nonnull @.str.9, ptr noundef nonnull %.040) #21
  store i32 1, ptr %43, align 8
  br label %.loopexit54

.loopexit54:                                      ; preds = %17, %45, %51, %67, %68, %55, %44, %37, %27, %7, %4
  %.0 = phi i32 [ 0, %4 ], [ 0, %7 ], [ 0, %27 ], [ 0, %37 ], [ 1, %44 ], [ 1, %55 ], [ 1, %68 ], [ 1, %67 ], [ 1, %51 ], [ 0, %45 ], [ 0, %17 ]
  ret i32 %.0
}